target datalayout = "e-m:e-p270:32:32-p271:32:32-p272:64:64-i64:64-i128:128-f80:128-n8:16:32:64-S128"
target triple = "x86_64-pc-linux-gnu"

%class.QString = type { %struct.QArrayDataPointer }
%struct.QArrayDataPointer = type { ptr, ptr, i64 }
%class.QSize = type { i32, i32 }
%class.CaptureFilterEdit = type { %class.SyntaxLineEdit.base, i8, i8, i8, %class.QString, ptr, ptr, ptr, ptr, ptr, ptr, ptr, ptr, ptr }
%class.SyntaxLineEdit.base = type <{ %class.QLineEdit, ptr, ptr, i32, [4 x i8], %class.QString, %class.QString, %class.QString, %class.QString, %class.QString, i8 }>
%class.QLineEdit = type { %class.QWidget }
%class.QWidget = type { %class.QObject, %class.QPaintDevice.base, ptr }
%class.QObject = type { ptr, %class.QScopedPointer }
%class.QScopedPointer = type { ptr }
%class.QPaintDevice.base = type <{ ptr, i16 }>
%class.QRect = type { i32, i32, i32, i32 }
%class.QPoint = type { i32, i32 }

; Function Attrs: inlinehint mustprogress nounwind null_pointer_is_valid sspstrong uwtable
define linkonce_odr void @_ZN6QPointC2Eii(ptr noundef align 4 dereferenceable_or_null(8) %0, i32 noundef %1, i32 noundef %2) unnamed_addr #2 comdat align 2 {
  %4 = alloca ptr, align 8
  %5 = alloca i32, align 4
  %6 = alloca i32, align 4
  store ptr %0, ptr %4, align 8
  store i32 %1, ptr %5, align 4
  store i32 %2, ptr %6, align 4
  %7 = load ptr, ptr %4, align 8
  %8 = getelementptr inbounds nuw %class.QPoint, ptr %7, i32 0, i32 0
  %9 = load i32, ptr %5, align 4
  store i32 %9, ptr %8, align 4
  %10 = getelementptr inbounds nuw %class.QPoint, ptr %7, i32 0, i32 1
  %11 = load i32, ptr %6, align 4
  store i32 %11, ptr %10, align 4
  ret void
}

; Function Attrs: inlinehint mustprogress nounwind null_pointer_is_valid sspstrong uwtable
define linkonce_odr noundef i32 @_ZNK5QRect6heightEv(ptr noundef align 4 dereferenceable_or_null(16) %0) #2 comdat align 2 {
  %2 = alloca ptr, align 8
  store ptr %0, ptr %2, align 8
  %3 = load ptr, ptr %2, align 8
  %4 = getelementptr inbounds nuw %class.QRect, ptr %3, i32 0, i32 3
  %5 = load i32, ptr %4, align 4
  %6 = getelementptr inbounds nuw %class.QRect, ptr %3, i32 0, i32 1
  %7 = load i32, ptr %6, align 4
  %8 = sub i32 %5, %7
  %9 = add i32 %8, 1
  ret i32 %9
}

; Function Attrs: inlinehint mustprogress null_pointer_is_valid sspstrong uwtable
define linkonce_odr void @_ZN7QWidget4moveEii(ptr noundef align 8 dereferenceable_or_null(40) %0, i32 noundef %1, i32 noundef %2) #1 comdat align 2 {
  %4 = alloca ptr, align 8
  %5 = alloca i32, align 4
  %6 = alloca i32, align 4
  %7 = alloca %class.QPoint, align 4
  store ptr %0, ptr %4, align 8
  store i32 %1, ptr %5, align 4
  store i32 %2, ptr %6, align 4
  %8 = load ptr, ptr %4, align 8
  call void @llvm.lifetime.start.p0(i64 8, ptr %7) #3
  %9 = load i32, ptr %5, align 4
  %10 = load i32, ptr %6, align 4
  call void @_ZN6QPointC2Eii(ptr noundef align 4 dereferenceable_or_null(8) %7, i32 noundef %9, i32 noundef %10) #3
  call void @_ZN7QWidget4moveERK6QPoint(ptr noundef align 8 dereferenceable_or_null(40) %8, ptr noundef align 4 dereferenceable(8) %7)
  call void @llvm.lifetime.end.p0(i64 8, ptr %7) #3
  ret void
}

; Function Attrs: inlinehint mustprogress nounwind null_pointer_is_valid sspstrong uwtable
define linkonce_odr noundef i32 @_ZNK5QRect3topEv(ptr noundef align 4 dereferenceable_or_null(16) %0) #2 comdat align 2 {
  %2 = alloca ptr, align 8
  store ptr %0, ptr %2, align 8
  %3 = load ptr, ptr %2, align 8
  %4 = getelementptr inbounds nuw %class.QRect, ptr %3, i32 0, i32 1
  %5 = load i32, ptr %4, align 4
  ret i32 %5
}

; Function Attrs: inlinehint mustprogress nounwind null_pointer_is_valid sspstrong uwtable
define linkonce_odr noundef i32 @_ZNK5QSize5widthEv(ptr noundef align 4 dereferenceable_or_null(8) %0) #2 comdat align 2 {
  %2 = alloca ptr, align 8
  store ptr %0, ptr %2, align 8
  %3 = load ptr, ptr %2, align 8
  %4 = getelementptr inbounds nuw %class.QSize, ptr %3, i32 0, i32 0
  %5 = load i32, ptr %4, align 4
  ret i32 %5
}

; Function Attrs: inlinehint mustprogress nounwind null_pointer_is_valid sspstrong uwtable
define linkonce_odr noundef i32 @_ZNK5QRect5rightEv(ptr noundef align 4 dereferenceable_or_null(16) %0) #2 comdat align 2 {
  %2 = alloca ptr, align 8
  store ptr %0, ptr %2, align 8
  %3 = load ptr, ptr %2, align 8
  %4 = getelementptr inbounds nuw %class.QRect, ptr %3, i32 0, i32 2
  %5 = load i32, ptr %4, align 4
  ret i32 %5
}

; Function Attrs: inlinehint mustprogress nounwind null_pointer_is_valid sspstrong uwtable
define linkonce_odr void @_ZN5QSizeC2Eii(ptr noundef align 4 dereferenceable_or_null(8) %0, i32 noundef %1, i32 noundef %2) unnamed_addr #2 comdat align 2 {
  %4 = alloca ptr, align 8
  %5 = alloca i32, align 4
  %6 = alloca i32, align 4
  store ptr %0, ptr %4, align 8
  store i32 %1, ptr %5, align 4
  store i32 %2, ptr %6, align 4
  %7 = load ptr, ptr %4, align 8
  %8 = getelementptr inbounds nuw %class.QSize, ptr %7, i32 0, i32 0
  %9 = load i32, ptr %5, align 4
  store i32 %9, ptr %8, align 4
  %10 = getelementptr inbounds nuw %class.QSize, ptr %7, i32 0, i32 1
  %11 = load i32, ptr %6, align 4
  store i32 %11, ptr %10, align 4
  ret void
}

; Function Attrs: mustprogress null_pointer_is_valid sspstrong uwtable
define void @_ZN17CaptureFilterEdit11resizeEventEP12QResizeEvent(ptr noundef align 8 dereferenceable_or_null(288) %0, ptr noundef %1) unnamed_addr #7 align 2 {
  %3 = alloca ptr, align 8
  %4 = alloca ptr, align 8
  %5 = alloca %class.QSize, align 4
  %6 = alloca %class.QSize, align 4
  %7 = alloca %class.QSize, align 4
  %8 = alloca %class.QSize, align 4
  %9 = alloca i32, align 4
  %10 = alloca %class.QRect, align 4
  %11 = alloca %class.QRect, align 4
  %12 = alloca %class.QRect, align 4
  %13 = alloca %class.QRect, align 4
  %14 = alloca %class.QRect, align 4
  %15 = alloca %class.QRect, align 4
  %16 = alloca %class.QRect, align 4
  %17 = alloca %class.QRect, align 4
  %18 = alloca %class.QRect, align 4
  %19 = alloca %class.QRect, align 4
  store ptr %0, ptr %3, align 8
  store ptr %1, ptr %4, align 8
  %20 = load ptr, ptr %3, align 8
  call void @llvm.lifetime.start.p0(i64 8, ptr %5) #3
  call void @_ZN5QSizeC2Eii(ptr noundef align 4 dereferenceable_or_null(8) %5, i32 noundef 0, i32 noundef 0) #3
  %21 = getelementptr inbounds nuw %class.CaptureFilterEdit, ptr %20, i32 0, i32 9
  %22 = load ptr, ptr %21, align 8
  %23 = icmp ne ptr %22, null
  br i1 %23, label %24, label %31

24:                                               ; preds = %2
  call void @llvm.lifetime.start.p0(i64 8, ptr %6) #3
  %25 = getelementptr inbounds nuw %class.CaptureFilterEdit, ptr %20, i32 0, i32 9
  %26 = load ptr, ptr %25, align 8
  %27 = load ptr, ptr %26, align 8
  %28 = getelementptr inbounds ptr, ptr %27, i64 14
  %29 = load ptr, ptr %28, align 8
  %30 = call i64 %29(ptr noundef align 8 dereferenceable_or_null(40) %26)
  store i64 %30, ptr %6, align 4
  call void @llvm.memcpy.p0.p0.i64(ptr align 4 %5, ptr align 4 %6, i64 8, i1 false)
  call void @llvm.lifetime.end.p0(i64 8, ptr %6) #3
  br label %31

31:                                               ; preds = %24, %2
  call void @llvm.lifetime.start.p0(i64 8, ptr %7) #3
  call void @_ZN5QSizeC2Eii(ptr noundef align 4 dereferenceable_or_null(8) %7, i32 noundef 0, i32 noundef 0) #3
  %32 = getelementptr inbounds nuw %class.CaptureFilterEdit, ptr %20, i32 0, i32 10
  %33 = load ptr, ptr %32, align 8
  %34 = icmp ne ptr %33, null
  br i1 %34, label %35, label %42

35:                                               ; preds = %31
  call void @llvm.lifetime.start.p0(i64 8, ptr %8) #3
  %36 = getelementptr inbounds nuw %class.CaptureFilterEdit, ptr %20, i32 0, i32 10
  %37 = load ptr, ptr %36, align 8
  %38 = load ptr, ptr %37, align 8
  %39 = getelementptr inbounds ptr, ptr %38, i64 14
  %40 = load ptr, ptr %39, align 8
  %41 = call i64 %40(ptr noundef align 8 dereferenceable_or_null(40) %37)
  store i64 %41, ptr %8, align 4
  call void @llvm.memcpy.p0.p0.i64(ptr align 4 %7, ptr align 4 %8, i64 8, i1 false)
  call void @llvm.lifetime.end.p0(i64 8, ptr %8) #3
  br label %42

42:                                               ; preds = %35, %31
  call void @llvm.lifetime.start.p0(i64 4, ptr %9) #3
  %43 = call noundef ptr @_ZNK7QWidget5styleEv(ptr noundef align 8 dereferenceable_or_null(40) %20)
  %44 = load ptr, ptr %43, align 8
  %45 = getelementptr inbounds ptr, ptr %44, i64 28
  %46 = load ptr, ptr %45, align 8
  %47 = call noundef i32 %46(ptr noundef align 8 dereferenceable_or_null(16) %43, i32 noundef 5, ptr noundef null, ptr noundef null)
  store i32 %47, ptr %9, align 4
  %48 = getelementptr inbounds nuw %class.CaptureFilterEdit, ptr %20, i32 0, i32 9
  %49 = load ptr, ptr %48, align 8
  %50 = icmp ne ptr %49, null
  br i1 %50, label %51, label %88

51:                                               ; preds = %42
  %52 = getelementptr inbounds nuw %class.CaptureFilterEdit, ptr %20, i32 0, i32 9
  %53 = load ptr, ptr %52, align 8
  call void @llvm.lifetime.start.p0(i64 16, ptr %10) #3
  %54 = call { i64, i64 } @_ZNK7QWidget12contentsRectEv(ptr noundef align 8 dereferenceable_or_null(40) %20)
  %55 = getelementptr inbounds nuw { i64, i64 }, ptr %10, i32 0, i32 0
  %56 = extractvalue { i64, i64 } %54, 0
  store i64 %56, ptr %55, align 4
  %57 = getelementptr inbounds nuw { i64, i64 }, ptr %10, i32 0, i32 1
  %58 = extractvalue { i64, i64 } %54, 1
  store i64 %58, ptr %57, align 4
  %59 = call noundef i32 @_ZNK5QRect5rightEv(ptr noundef align 4 dereferenceable_or_null(16) %10) #3
  %60 = load i32, ptr %9, align 4
  %61 = sub i32 %59, %60
  %62 = call noundef i32 @_ZNK5QSize5widthEv(ptr noundef align 4 dereferenceable_or_null(8) %5) #3
  %63 = sub i32 %61, %62
  %64 = call noundef i32 @_ZNK5QSize5widthEv(ptr noundef align 4 dereferenceable_or_null(8) %7) #3
  %65 = sub i32 %63, %64
  call void @llvm.lifetime.start.p0(i64 16, ptr %11) #3
  %66 = call { i64, i64 } @_ZNK7QWidget12contentsRectEv(ptr noundef align 8 dereferenceable_or_null(40) %20)
  %67 = getelementptr inbounds nuw { i64, i64 }, ptr %11, i32 0, i32 0
  %68 = extractvalue { i64, i64 } %66, 0
  store i64 %68, ptr %67, align 4
  %69 = getelementptr inbounds nuw { i64, i64 }, ptr %11, i32 0, i32 1
  %70 = extractvalue { i64, i64 } %66, 1
  store i64 %70, ptr %69, align 4
  %71 = call noundef i32 @_ZNK5QRect3topEv(ptr noundef align 4 dereferenceable_or_null(16) %11) #3
  call void @_ZN7QWidget4moveEii(ptr noundef align 8 dereferenceable_or_null(40) %53, i32 noundef %65, i32 noundef %71)
  call void @llvm.lifetime.end.p0(i64 16, ptr %11) #3
  call void @llvm.lifetime.end.p0(i64 16, ptr %10) #3
  %72 = getelementptr inbounds nuw %class.CaptureFilterEdit, ptr %20, i32 0, i32 9
  %73 = load ptr, ptr %72, align 8
  call void @llvm.lifetime.start.p0(i64 16, ptr %12) #3
  %74 = call { i64, i64 } @_ZNK7QWidget12contentsRectEv(ptr noundef align 8 dereferenceable_or_null(40) %20)
  %75 = getelementptr inbounds nuw { i64, i64 }, ptr %12, i32 0, i32 0
  %76 = extractvalue { i64, i64 } %74, 0
  store i64 %76, ptr %75, align 4
  %77 = getelementptr inbounds nuw { i64, i64 }, ptr %12, i32 0, i32 1
  %78 = extractvalue { i64, i64 } %74, 1
  store i64 %78, ptr %77, align 4
  %79 = call noundef i32 @_ZNK5QRect6heightEv(ptr noundef align 4 dereferenceable_or_null(16) %12) #3
  call void @_ZN7QWidget16setMinimumHeightEi(ptr noundef align 8 dereferenceable_or_null(40) %73, i32 noundef %79)
  call void @llvm.lifetime.end.p0(i64 16, ptr %12) #3
  %80 = getelementptr inbounds nuw %class.CaptureFilterEdit, ptr %20, i32 0, i32 9
  %81 = load ptr, ptr %80, align 8
  call void @llvm.lifetime.start.p0(i64 16, ptr %13) #3
  %82 = call { i64, i64 } @_ZNK7QWidget12contentsRectEv(ptr noundef align 8 dereferenceable_or_null(40) %20)
  %83 = getelementptr inbounds nuw { i64, i64 }, ptr %13, i32 0, i32 0
  %84 = extractvalue { i64, i64 } %82, 0
  store i64 %84, ptr %83, align 4
  %85 = getelementptr inbounds nuw { i64, i64 }, ptr %13, i32 0, i32 1
  %86 = extractvalue { i64, i64 } %82, 1
  store i64 %86, ptr %85, align 4
  %87 = call noundef i32 @_ZNK5QRect6heightEv(ptr noundef align 4 dereferenceable_or_null(16) %13) #3
  call void @_ZN7QWidget16setMaximumHeightEi(ptr noundef align 8 dereferenceable_or_null(40) %81, i32 noundef %87)
  call void @llvm.lifetime.end.p0(i64 16, ptr %13) #3
  br label %88

88:                                               ; preds = %51, %42
  %89 = getelementptr inbounds nuw %class.CaptureFilterEdit, ptr %20, i32 0, i32 10
  %90 = load ptr, ptr %89, align 8
  %91 = icmp ne ptr %90, null
  br i1 %91, label %92, label %127

92:                                               ; preds = %88
  %93 = getelementptr inbounds nuw %class.CaptureFilterEdit, ptr %20, i32 0, i32 10
  %94 = load ptr, ptr %93, align 8
  call void @llvm.lifetime.start.p0(i64 16, ptr %14) #3
  %95 = call { i64, i64 } @_ZNK7QWidget12contentsRectEv(ptr noundef align 8 dereferenceable_or_null(40) %20)
  %96 = getelementptr inbounds nuw { i64, i64 }, ptr %14, i32 0, i32 0
  %97 = extractvalue { i64, i64 } %95, 0
  store i64 %97, ptr %96, align 4
  %98 = getelementptr inbounds nuw { i64, i64 }, ptr %14, i32 0, i32 1
  %99 = extractvalue { i64, i64 } %95, 1
  store i64 %99, ptr %98, align 4
  %100 = call noundef i32 @_ZNK5QRect5rightEv(ptr noundef align 4 dereferenceable_or_null(16) %14) #3
  %101 = load i32, ptr %9, align 4
  %102 = sub i32 %100, %101
  %103 = call noundef i32 @_ZNK5QSize5widthEv(ptr noundef align 4 dereferenceable_or_null(8) %7) #3
  %104 = sub i32 %102, %103
  call void @llvm.lifetime.start.p0(i64 16, ptr %15) #3
  %105 = call { i64, i64 } @_ZNK7QWidget12contentsRectEv(ptr noundef align 8 dereferenceable_or_null(40) %20)
  %106 = getelementptr inbounds nuw { i64, i64 }, ptr %15, i32 0, i32 0
  %107 = extractvalue { i64, i64 } %105, 0
  store i64 %107, ptr %106, align 4
  %108 = getelementptr inbounds nuw { i64, i64 }, ptr %15, i32 0, i32 1
  %109 = extractvalue { i64, i64 } %105, 1
  store i64 %109, ptr %108, align 4
  %110 = call noundef i32 @_ZNK5QRect3topEv(ptr noundef align 4 dereferenceable_or_null(16) %15) #3
  call void @_ZN7QWidget4moveEii(ptr noundef align 8 dereferenceable_or_null(40) %94, i32 noundef %104, i32 noundef %110)
  call void @llvm.lifetime.end.p0(i64 16, ptr %15) #3
  call void @llvm.lifetime.end.p0(i64 16, ptr %14) #3
  %111 = getelementptr inbounds nuw %class.CaptureFilterEdit, ptr %20, i32 0, i32 10
  %112 = load ptr, ptr %111, align 8
  call void @llvm.lifetime.start.p0(i64 16, ptr %16) #3
  %113 = call { i64, i64 } @_ZNK7QWidget12contentsRectEv(ptr noundef align 8 dereferenceable_or_null(40) %20)
  %114 = getelementptr inbounds nuw { i64, i64 }, ptr %16, i32 0, i32 0
  %115 = extractvalue { i64, i64 } %113, 0
  store i64 %115, ptr %114, align 4
  %116 = getelementptr inbounds nuw { i64, i64 }, ptr %16, i32 0, i32 1
  %117 = extractvalue { i64, i64 } %113, 1
  store i64 %117, ptr %116, align 4
  %118 = call noundef i32 @_ZNK5QRect6heightEv(ptr noundef align 4 dereferenceable_or_null(16) %16) #3
  call void @_ZN7QWidget16setMinimumHeightEi(ptr noundef align 8 dereferenceable_or_null(40) %112, i32 noundef %118)
  call void @llvm.lifetime.end.p0(i64 16, ptr %16) #3
  %119 = getelementptr inbounds nuw %class.CaptureFilterEdit, ptr %20, i32 0, i32 10
  %120 = load ptr, ptr %119, align 8
  call void @llvm.lifetime.start.p0(i64 16, ptr %17) #3
  %121 = call { i64, i64 } @_ZNK7QWidget12contentsRectEv(ptr noundef align 8 dereferenceable_or_null(40) %20)
  %122 = getelementptr inbounds nuw { i64, i64 }, ptr %17, i32 0, i32 0
  %123 = extractvalue { i64, i64 } %121, 0
  store i64 %123, ptr %122, align 4
  %124 = getelementptr inbounds nuw { i64, i64 }, ptr %17, i32 0, i32 1
  %125 = extractvalue { i64, i64 } %121, 1
  store i64 %125, ptr %124, align 4
  %126 = call noundef i32 @_ZNK5QRect6heightEv(ptr noundef align 4 dereferenceable_or_null(16) %17) #3
  call void @_ZN7QWidget16setMaximumHeightEi(ptr noundef align 8 dereferenceable_or_null(40) %120, i32 noundef %126)
  call void @llvm.lifetime.end.p0(i64 16, ptr %17) #3
  br label %127

127:                                              ; preds = %92, %88
  %128 = getelementptr inbounds nuw %class.CaptureFilterEdit, ptr %20, i32 0, i32 8
  %129 = load ptr, ptr %128, align 8
  %130 = icmp ne ptr %129, null
  br i1 %130, label %131, label %148

131:                                              ; preds = %127
  %132 = getelementptr inbounds nuw %class.CaptureFilterEdit, ptr %20, i32 0, i32 8
  %133 = load ptr, ptr %132, align 8
  call void @llvm.lifetime.start.p0(i64 16, ptr %18) #3
  %134 = call { i64, i64 } @_ZNK7QWidget12contentsRectEv(ptr noundef align 8 dereferenceable_or_null(40) %20)
  %135 = getelementptr inbounds nuw { i64, i64 }, ptr %18, i32 0, i32 0
  %136 = extractvalue { i64, i64 } %134, 0
  store i64 %136, ptr %135, align 4
  %137 = getelementptr inbounds nuw { i64, i64 }, ptr %18, i32 0, i32 1
  %138 = extractvalue { i64, i64 } %134, 1
  store i64 %138, ptr %137, align 4
  %139 = call noundef i32 @_ZNK5QRect6heightEv(ptr noundef align 4 dereferenceable_or_null(16) %18) #3
  call void @_ZN7QWidget16setMinimumHeightEi(ptr noundef align 8 dereferenceable_or_null(40) %133, i32 noundef %139)
  call void @llvm.lifetime.end.p0(i64 16, ptr %18) #3
  %140 = getelementptr inbounds nuw %class.CaptureFilterEdit, ptr %20, i32 0, i32 8
  %141 = load ptr, ptr %140, align 8
  call void @llvm.lifetime.start.p0(i64 16, ptr %19) #3
  %142 = call { i64, i64 } @_ZNK7QWidget12contentsRectEv(ptr noundef align 8 dereferenceable_or_null(40) %20)
  %143 = getelementptr inbounds nuw { i64, i64 }, ptr %19, i32 0, i32 0
  %144 = extractvalue { i64, i64 } %142, 0
  store i64 %144, ptr %143, align 4
  %145 = getelementptr inbounds nuw { i64, i64 }, ptr %19, i32 0, i32 1
  %146 = extractvalue { i64, i64 } %142, 1
  store i64 %146, ptr %145, align 4
  %147 = call noundef i32 @_ZNK5QRect6heightEv(ptr noundef align 4 dereferenceable_or_null(16) %19) #3
  call void @_ZN7QWidget16setMaximumHeightEi(ptr noundef align 8 dereferenceable_or_null(40) %141, i32 noundef %147)
  call void @llvm.lifetime.end.p0(i64 16, ptr %19) #3
  br label %148

148:                                              ; preds = %131, %127
  call void @llvm.lifetime.end.p0(i64 4, ptr %9) #3
  call void @llvm.lifetime.end.p0(i64 8, ptr %7) #3
  call void @llvm.lifetime.end.p0(i64 8, ptr %5) #3
  ret void
}