; Function Attrs: mustprogress null_pointer_is_valid sspstrong uwtable
define void @_ZN17CaptureFilterEdit11resizeEventEP12QResizeEvent(ptr noundef align 8 dereferenceable_or_null(288) %0, ptr noundef readnone captures(none) %1) unnamed_addr #5 align 2 {
  %3 = alloca %class.QPoint, align 4
  %4 = alloca %class.QPoint, align 4
  %5 = getelementptr inbounds nuw i8, ptr %0, i64 248
  %6 = load ptr, ptr %5, align 8
  %.not = icmp eq ptr %6, null
  br i1 %.not, label %12, label %7

7:                                                ; preds = %2
  %8 = load ptr, ptr %6, align 8
  %9 = getelementptr inbounds nuw i8, ptr %8, i64 112
  %10 = load ptr, ptr %9, align 8
  %11 = tail call i64 %10(ptr noundef nonnull align 8 dereferenceable_or_null(40) %6)
  %.sroa.030.0.extract.trunc = trunc i64 %11 to i32
  br label %12

12:                                               ; preds = %7, %2
  %.sroa.030.0 = phi i32 [ 0, %2 ], [ %.sroa.030.0.extract.trunc, %7 ]
  %13 = getelementptr inbounds nuw i8, ptr %0, i64 256
  %14 = load ptr, ptr %13, align 8
  %.not7 = icmp eq ptr %14, null
  br i1 %.not7, label %20, label %15

15:                                               ; preds = %12
  %16 = load ptr, ptr %14, align 8
  %17 = getelementptr inbounds nuw i8, ptr %16, i64 112
  %18 = load ptr, ptr %17, align 8
  %19 = tail call i64 %18(ptr noundef nonnull align 8 dereferenceable_or_null(40) %14)
  %.sroa.028.0.extract.trunc = trunc i64 %19 to i32
  br label %20

20:                                               ; preds = %15, %12
  %.sroa.028.0 = phi i32 [ 0, %12 ], [ %.sroa.028.0.extract.trunc, %15 ]
  %21 = tail call noundef ptr @_ZNK7QWidget5styleEv(ptr noundef align 8 dereferenceable_or_null(40) %0)
  %22 = load ptr, ptr %21, align 8
  %23 = getelementptr inbounds nuw i8, ptr %22, i64 224
  %24 = load ptr, ptr %23, align 8
  %25 = tail call noundef i32 %24(ptr noundef align 8 dereferenceable_or_null(16) %21, i32 noundef 5, ptr noundef null, ptr noundef null)
  %26 = load ptr, ptr %5, align 8
  %.not8 = icmp eq ptr %26, null
  br i1 %.not8, label %48, label %27

27:                                               ; preds = %20
  %28 = tail call { i64, i64 } @_ZNK7QWidget12contentsRectEv(ptr noundef align 8 dereferenceable_or_null(40) %0)
  %29 = extractvalue { i64, i64 } %28, 1
  %.sroa.327.8.extract.trunc = trunc i64 %29 to i32
  %30 = add i32 %.sroa.028.0, %.sroa.030.0
  %31 = add i32 %30, %25
  %32 = sub i32 %.sroa.327.8.extract.trunc, %31
  %33 = tail call { i64, i64 } @_ZNK7QWidget12contentsRectEv(ptr noundef align 8 dereferenceable_or_null(40) %0)
  %34 = extractvalue { i64, i64 } %33, 0
  %.sroa.024.4.extract.shift = lshr i64 %34, 32
  %.sroa.024.4.extract.trunc = trunc nuw i64 %.sroa.024.4.extract.shift to i32
  call void @llvm.lifetime.start.p0(i64 8, ptr nonnull %4) #23
  store i32 %32, ptr %4, align 4
  %35 = getelementptr inbounds nuw i8, ptr %4, i64 4
  store i32 %.sroa.024.4.extract.trunc, ptr %35, align 4
  call void @_ZN7QWidget4moveERK6QPoint(ptr noundef nonnull align 8 dereferenceable_or_null(40) %26, ptr noundef nonnull align 4 dereferenceable(8) %4)
  call void @llvm.lifetime.end.p0(i64 8, ptr nonnull %4) #23
  %36 = load ptr, ptr %5, align 8
  %37 = call { i64, i64 } @_ZNK7QWidget12contentsRectEv(ptr noundef align 8 dereferenceable_or_null(40) %0)
  %38 = extractvalue { i64, i64 } %37, 0
  %39 = extractvalue { i64, i64 } %37, 1
  %.sroa.423.12.extract.shift = lshr i64 %39, 32
  %.sroa.423.12.extract.trunc = trunc nuw i64 %.sroa.423.12.extract.shift to i32
  %.sroa.022.4.extract.shift = lshr i64 %38, 32
  %.sroa.022.4.extract.trunc = trunc nuw i64 %.sroa.022.4.extract.shift to i32
  %40 = add i32 %.sroa.423.12.extract.trunc, 1
  %41 = sub i32 %40, %.sroa.022.4.extract.trunc
  call void @_ZN7QWidget16setMinimumHeightEi(ptr noundef align 8 dereferenceable_or_null(40) %36, i32 noundef %41)
  %42 = load ptr, ptr %5, align 8
  %43 = call { i64, i64 } @_ZNK7QWidget12contentsRectEv(ptr noundef align 8 dereferenceable_or_null(40) %0)
  %44 = extractvalue { i64, i64 } %43, 0
  %45 = extractvalue { i64, i64 } %43, 1
  %.sroa.421.12.extract.shift = lshr i64 %45, 32
  %.sroa.421.12.extract.trunc = trunc nuw i64 %.sroa.421.12.extract.shift to i32
  %.sroa.020.4.extract.shift = lshr i64 %44, 32
  %.sroa.020.4.extract.trunc = trunc nuw i64 %.sroa.020.4.extract.shift to i32
  %46 = add i32 %.sroa.421.12.extract.trunc, 1
  %47 = sub i32 %46, %.sroa.020.4.extract.trunc
  call void @_ZN7QWidget16setMaximumHeightEi(ptr noundef align 8 dereferenceable_or_null(40) %42, i32 noundef %47)
  br label %48

48:                                               ; preds = %27, %20
  %49 = load ptr, ptr %13, align 8
  %.not9 = icmp eq ptr %49, null
  br i1 %.not9, label %70, label %50

50:                                               ; preds = %48
  %51 = call { i64, i64 } @_ZNK7QWidget12contentsRectEv(ptr noundef align 8 dereferenceable_or_null(40) %0)
  %52 = extractvalue { i64, i64 } %51, 1
  %.sroa.3.8.extract.trunc = trunc i64 %52 to i32
  %53 = add i32 %25, %.sroa.028.0
  %54 = sub i32 %.sroa.3.8.extract.trunc, %53
  %55 = call { i64, i64 } @_ZNK7QWidget12contentsRectEv(ptr noundef align 8 dereferenceable_or_null(40) %0)
  %56 = extractvalue { i64, i64 } %55, 0
  %.sroa.017.4.extract.shift = lshr i64 %56, 32
  %.sroa.017.4.extract.trunc = trunc nuw i64 %.sroa.017.4.extract.shift to i32
  call void @llvm.lifetime.start.p0(i64 8, ptr nonnull %3) #23
  store i32 %54, ptr %3, align 4
  %57 = getelementptr inbounds nuw i8, ptr %3, i64 4
  store i32 %.sroa.017.4.extract.trunc, ptr %57, align 4
  call void @_ZN7QWidget4moveERK6QPoint(ptr noundef nonnull align 8 dereferenceable_or_null(40) %49, ptr noundef nonnull align 4 dereferenceable(8) %3)
  call void @llvm.lifetime.end.p0(i64 8, ptr nonnull %3) #23
  %58 = load ptr, ptr %13, align 8
  %59 = call { i64, i64 } @_ZNK7QWidget12contentsRectEv(ptr noundef align 8 dereferenceable_or_null(40) %0)
  %60 = extractvalue { i64, i64 } %59, 0
  %61 = extractvalue { i64, i64 } %59, 1
  %.sroa.416.12.extract.shift = lshr i64 %61, 32
  %.sroa.416.12.extract.trunc = trunc nuw i64 %.sroa.416.12.extract.shift to i32
  %.sroa.015.4.extract.shift = lshr i64 %60, 32
  %.sroa.015.4.extract.trunc = trunc nuw i64 %.sroa.015.4.extract.shift to i32
  %62 = add i32 %.sroa.416.12.extract.trunc, 1
  %63 = sub i32 %62, %.sroa.015.4.extract.trunc
  call void @_ZN7QWidget16setMinimumHeightEi(ptr noundef align 8 dereferenceable_or_null(40) %58, i32 noundef %63)
  %64 = load ptr, ptr %13, align 8
  %65 = call { i64, i64 } @_ZNK7QWidget12contentsRectEv(ptr noundef align 8 dereferenceable_or_null(40) %0)
  %66 = extractvalue { i64, i64 } %65, 0
  %67 = extractvalue { i64, i64 } %65, 1
  %.sroa.414.12.extract.shift = lshr i64 %67, 32
  %.sroa.414.12.extract.trunc = trunc nuw i64 %.sroa.414.12.extract.shift to i32
  %.sroa.013.4.extract.shift = lshr i64 %66, 32
  %.sroa.013.4.extract.trunc = trunc nuw i64 %.sroa.013.4.extract.shift to i32
  %68 = add i32 %.sroa.414.12.extract.trunc, 1
  %69 = sub i32 %68, %.sroa.013.4.extract.trunc
  call void @_ZN7QWidget16setMaximumHeightEi(ptr noundef align 8 dereferenceable_or_null(40) %64, i32 noundef %69)
  br label %70

70:                                               ; preds = %50, %48
  %71 = getelementptr inbounds nuw i8, ptr %0, i64 240
  %72 = load ptr, ptr %71, align 8
  %.not10 = icmp eq ptr %72, null
  br i1 %.not10, label %85, label %73

73:                                               ; preds = %70
  %74 = call { i64, i64 } @_ZNK7QWidget12contentsRectEv(ptr noundef align 8 dereferenceable_or_null(40) %0)
  %75 = extractvalue { i64, i64 } %74, 0
  %76 = extractvalue { i64, i64 } %74, 1
  %.sroa.412.12.extract.shift = lshr i64 %76, 32
  %.sroa.412.12.extract.trunc = trunc nuw i64 %.sroa.412.12.extract.shift to i32
  %.sroa.011.4.extract.shift = lshr i64 %75, 32
  %.sroa.011.4.extract.trunc = trunc nuw i64 %.sroa.011.4.extract.shift to i32
  %77 = add i32 %.sroa.412.12.extract.trunc, 1
  %78 = sub i32 %77, %.sroa.011.4.extract.trunc
  call void @_ZN7QWidget16setMinimumHeightEi(ptr noundef nonnull align 8 dereferenceable_or_null(40) %72, i32 noundef %78)
  %79 = load ptr, ptr %71, align 8
  %80 = call { i64, i64 } @_ZNK7QWidget12contentsRectEv(ptr noundef align 8 dereferenceable_or_null(40) %0)
  %81 = extractvalue { i64, i64 } %80, 0
  %82 = extractvalue { i64, i64 } %80, 1
  %.sroa.4.12.extract.shift = lshr i64 %82, 32
  %.sroa.4.12.extract.trunc = trunc nuw i64 %.sroa.4.12.extract.shift to i32
  %.sroa.0.4.extract.shift = lshr i64 %81, 32
  %.sroa.0.4.extract.trunc = trunc nuw i64 %.sroa.0.4.extract.shift to i32
  %83 = add i32 %.sroa.4.12.extract.trunc, 1
  %84 = sub i32 %83, %.sroa.0.4.extract.trunc
  call void @_ZN7QWidget16setMaximumHeightEi(ptr noundef align 8 dereferenceable_or_null(40) %79, i32 noundef %84)
  br label %85

85:                                               ; preds = %73, %70
  ret void
}